target datalayout = "e-m:e-p270:32:32-p271:32:32-p272:64:64-i64:64-i128:128-f80:128-n8:16:32:64-S128"
target triple = "x86_64-unknown-linux-gnu"

%struct.of_dpa = type { ptr, ptr, ptr, i32, i32 }

; Function Attrs: nounwind sspstrong uwtable
define internal i32 @of_dpa_init(ptr noundef %world) #0 {
entry:
  %retval = alloca i32, align 4
  %world.addr = alloca ptr, align 8
  %of_dpa = alloca ptr, align 8
  store ptr %world, ptr %world.addr, align 8
  %0 = load ptr, ptr %world.addr, align 8
  %call = call ptr @world_private(ptr noundef %0)
  store ptr %call, ptr %of_dpa, align 8
  %1 = load ptr, ptr %world.addr, align 8
  %2 = load ptr, ptr %of_dpa, align 8
  %world1 = getelementptr inbounds %struct.of_dpa, ptr %2, i32 0, i32 0
  store ptr %1, ptr %world1, align 8
  %call2 = call ptr @g_hash_table_new_full(ptr noundef @rocker_int64_hash, ptr noundef @rocker_int64_equal, ptr noundef null, ptr noundef @g_free)
  %3 = load ptr, ptr %of_dpa, align 8
  %flow_tbl = getelementptr inbounds %struct.of_dpa, ptr %3, i32 0, i32 1
  store ptr %call2, ptr %flow_tbl, align 8
  %4 = load ptr, ptr %of_dpa, align 8
  %flow_tbl3 = getelementptr inbounds %struct.of_dpa, ptr %4, i32 0, i32 1
  %5 = load ptr, ptr %flow_tbl3, align 8
  %tobool = icmp ne ptr %5, null
  br i1 %tobool, label %if.end, label %if.then

if.then:                                          ; preds = %entry
  store i32 -12, ptr %retval, align 4
  br label %return

if.end:                                           ; preds = %entry
  %call4 = call ptr @g_hash_table_new_full(ptr noundef @g_int_hash, ptr noundef @g_int_equal, ptr noundef null, ptr noundef @g_free)
  %6 = load ptr, ptr %of_dpa, align 8
  %group_tbl = getelementptr inbounds %struct.of_dpa, ptr %6, i32 0, i32 2
  store ptr %call4, ptr %group_tbl, align 8
  %7 = load ptr, ptr %of_dpa, align 8
  %group_tbl5 = getelementptr inbounds %struct.of_dpa, ptr %7, i32 0, i32 2
  %8 = load ptr, ptr %group_tbl5, align 8
  %tobool6 = icmp ne ptr %8, null
  br i1 %tobool6, label %if.end8, label %if.then7

if.then7:                                         ; preds = %if.end
  br label %err_group_tbl

if.end8:                                          ; preds = %if.end
  %9 = load ptr, ptr %of_dpa, align 8
  %flow_tbl_max_size = getelementptr inbounds %struct.of_dpa, ptr %9, i32 0, i32 3
  store i32 100, ptr %flow_tbl_max_size, align 8
  %10 = load ptr, ptr %of_dpa, align 8
  %group_tbl_max_size = getelementptr inbounds %struct.of_dpa, ptr %10, i32 0, i32 4
  store i32 100, ptr %group_tbl_max_size, align 4
  store i32 0, ptr %retval, align 4
  br label %return

err_group_tbl:                                    ; preds = %if.then7
  %11 = load ptr, ptr %of_dpa, align 8
  %flow_tbl9 = getelementptr inbounds %struct.of_dpa, ptr %11, i32 0, i32 1
  %12 = load ptr, ptr %flow_tbl9, align 8
  call void @g_hash_table_destroy(ptr noundef %12)
  store i32 -12, ptr %retval, align 4
  br label %return

return:                                           ; preds = %err_group_tbl, %if.end8, %if.then
  %13 = load i32, ptr %retval, align 4
  ret i32 %13
}