; Function Attrs: nounwind sspstrong uwtable
define internal range(i32 -12, 1) i32 @of_dpa_init(ptr noundef %world) #0 {
entry:
  %call = tail call ptr @world_private(ptr noundef %world) #18
  store ptr %world, ptr %call, align 8
  %call2 = tail call ptr @g_hash_table_new_full(ptr noundef nonnull @rocker_int64_hash, ptr noundef nonnull @rocker_int64_equal, ptr noundef null, ptr noundef nonnull @g_free) #18
  %flow_tbl = getelementptr inbounds nuw i8, ptr %call, i64 8
  store ptr %call2, ptr %flow_tbl, align 8
  %tobool.not = icmp eq ptr %call2, null
  br i1 %tobool.not, label %return, label %if.end

if.end:                                           ; preds = %entry
  %call4 = tail call ptr @g_hash_table_new_full(ptr noundef nonnull @g_int_hash, ptr noundef nonnull @g_int_equal, ptr noundef null, ptr noundef nonnull @g_free) #18
  %group_tbl = getelementptr inbounds nuw i8, ptr %call, i64 16
  store ptr %call4, ptr %group_tbl, align 8
  %tobool6.not = icmp eq ptr %call4, null
  br i1 %tobool6.not, label %err_group_tbl, label %if.end8

if.end8:                                          ; preds = %if.end
  %flow_tbl_max_size = getelementptr inbounds nuw i8, ptr %call, i64 24
  store i32 100, ptr %flow_tbl_max_size, align 8
  %group_tbl_max_size = getelementptr inbounds nuw i8, ptr %call, i64 28
  store i32 100, ptr %group_tbl_max_size, align 4
  br label %return

err_group_tbl:                                    ; preds = %if.end
  %0 = load ptr, ptr %flow_tbl, align 8
  tail call void @g_hash_table_destroy(ptr noundef %0) #18
  br label %return

return:                                           ; preds = %entry, %err_group_tbl, %if.end8
  %retval.0 = phi i32 [ 0, %if.end8 ], [ -12, %err_group_tbl ], [ -12, %entry ]
  ret i32 %retval.0
}